target datalayout = "e-m:e-p270:32:32-p271:32:32-p272:64:64-i64:64-i128:128-f80:128-n8:16:32:64-S128"
target triple = "x86_64-pc-linux-gnu"

; Function Attrs: inlinehint nounwind uwtable
define internal i32 @pg_rotate_left32(i32 noundef %0, i32 noundef %1) #2 {
  %3 = alloca i32, align 4
  %4 = alloca i32, align 4
  store i32 %0, ptr %3, align 4
  store i32 %1, ptr %4, align 4
  %5 = load i32, ptr %3, align 4
  %6 = load i32, ptr %4, align 4
  %7 = shl i32 %5, %6
  %8 = load i32, ptr %3, align 4
  %9 = load i32, ptr %4, align 4
  %10 = sub i32 32, %9
  %11 = lshr i32 %8, %10
  %12 = or i32 %7, %11
  ret i32 %12
}

; Function Attrs: nounwind uwtable
define i64 @hash_bytes_uint32_extended(i32 noundef %0, i64 noundef %1) #0 {
  %3 = alloca i32, align 4
  %4 = alloca i64, align 8
  %5 = alloca i32, align 4
  %6 = alloca i32, align 4
  %7 = alloca i32, align 4
  store i32 %0, ptr %3, align 4
  store i64 %1, ptr %4, align 8
  call void @llvm.lifetime.start.p0(i64 4, ptr %5) #4
  call void @llvm.lifetime.start.p0(i64 4, ptr %6) #4
  call void @llvm.lifetime.start.p0(i64 4, ptr %7) #4
  store i32 -1636608428, ptr %7, align 4
  store i32 -1636608428, ptr %6, align 4
  store i32 -1636608428, ptr %5, align 4
  %8 = load i64, ptr %4, align 8
  %9 = icmp ne i64 %8, 0
  br i1 %9, label %10, label %80

10:                                               ; preds = %2
  %11 = load i64, ptr %4, align 8
  %12 = lshr i64 %11, 32
  %13 = trunc i64 %12 to i32
  %14 = load i32, ptr %5, align 4
  %15 = add i32 %14, %13
  store i32 %15, ptr %5, align 4
  %16 = load i64, ptr %4, align 8
  %17 = trunc i64 %16 to i32
  %18 = load i32, ptr %6, align 4
  %19 = add i32 %18, %17
  store i32 %19, ptr %6, align 4
  %20 = load i32, ptr %7, align 4
  %21 = load i32, ptr %5, align 4
  %22 = sub i32 %21, %20
  store i32 %22, ptr %5, align 4
  %23 = load i32, ptr %7, align 4
  %24 = call i32 @pg_rotate_left32(i32 noundef %23, i32 noundef 4)
  %25 = load i32, ptr %5, align 4
  %26 = xor i32 %25, %24
  store i32 %26, ptr %5, align 4
  %27 = load i32, ptr %6, align 4
  %28 = load i32, ptr %7, align 4
  %29 = add i32 %28, %27
  store i32 %29, ptr %7, align 4
  %30 = load i32, ptr %5, align 4
  %31 = load i32, ptr %6, align 4
  %32 = sub i32 %31, %30
  store i32 %32, ptr %6, align 4
  %33 = load i32, ptr %5, align 4
  %34 = call i32 @pg_rotate_left32(i32 noundef %33, i32 noundef 6)
  %35 = load i32, ptr %6, align 4
  %36 = xor i32 %35, %34
  store i32 %36, ptr %6, align 4
  %37 = load i32, ptr %7, align 4
  %38 = load i32, ptr %5, align 4
  %39 = add i32 %38, %37
  store i32 %39, ptr %5, align 4
  %40 = load i32, ptr %6, align 4
  %41 = load i32, ptr %7, align 4
  %42 = sub i32 %41, %40
  store i32 %42, ptr %7, align 4
  %43 = load i32, ptr %6, align 4
  %44 = call i32 @pg_rotate_left32(i32 noundef %43, i32 noundef 8)
  %45 = load i32, ptr %7, align 4
  %46 = xor i32 %45, %44
  store i32 %46, ptr %7, align 4
  %47 = load i32, ptr %5, align 4
  %48 = load i32, ptr %6, align 4
  %49 = add i32 %48, %47
  store i32 %49, ptr %6, align 4
  %50 = load i32, ptr %7, align 4
  %51 = load i32, ptr %5, align 4
  %52 = sub i32 %51, %50
  store i32 %52, ptr %5, align 4
  %53 = load i32, ptr %7, align 4
  %54 = call i32 @pg_rotate_left32(i32 noundef %53, i32 noundef 16)
  %55 = load i32, ptr %5, align 4
  %56 = xor i32 %55, %54
  store i32 %56, ptr %5, align 4
  %57 = load i32, ptr %6, align 4
  %58 = load i32, ptr %7, align 4
  %59 = add i32 %58, %57
  store i32 %59, ptr %7, align 4
  %60 = load i32, ptr %5, align 4
  %61 = load i32, ptr %6, align 4
  %62 = sub i32 %61, %60
  store i32 %62, ptr %6, align 4
  %63 = load i32, ptr %5, align 4
  %64 = call i32 @pg_rotate_left32(i32 noundef %63, i32 noundef 19)
  %65 = load i32, ptr %6, align 4
  %66 = xor i32 %65, %64
  store i32 %66, ptr %6, align 4
  %67 = load i32, ptr %7, align 4
  %68 = load i32, ptr %5, align 4
  %69 = add i32 %68, %67
  store i32 %69, ptr %5, align 4
  %70 = load i32, ptr %6, align 4
  %71 = load i32, ptr %7, align 4
  %72 = sub i32 %71, %70
  store i32 %72, ptr %7, align 4
  %73 = load i32, ptr %6, align 4
  %74 = call i32 @pg_rotate_left32(i32 noundef %73, i32 noundef 4)
  %75 = load i32, ptr %7, align 4
  %76 = xor i32 %75, %74
  store i32 %76, ptr %7, align 4
  %77 = load i32, ptr %5, align 4
  %78 = load i32, ptr %6, align 4
  %79 = add i32 %78, %77
  store i32 %79, ptr %6, align 4
  br label %80

80:                                               ; preds = %10, %2
  %81 = load i32, ptr %3, align 4
  %82 = load i32, ptr %5, align 4
  %83 = add i32 %82, %81
  store i32 %83, ptr %5, align 4
  %84 = load i32, ptr %6, align 4
  %85 = load i32, ptr %7, align 4
  %86 = xor i32 %85, %84
  store i32 %86, ptr %7, align 4
  %87 = load i32, ptr %6, align 4
  %88 = call i32 @pg_rotate_left32(i32 noundef %87, i32 noundef 14)
  %89 = load i32, ptr %7, align 4
  %90 = sub i32 %89, %88
  store i32 %90, ptr %7, align 4
  %91 = load i32, ptr %7, align 4
  %92 = load i32, ptr %5, align 4
  %93 = xor i32 %92, %91
  store i32 %93, ptr %5, align 4
  %94 = load i32, ptr %7, align 4
  %95 = call i32 @pg_rotate_left32(i32 noundef %94, i32 noundef 11)
  %96 = load i32, ptr %5, align 4
  %97 = sub i32 %96, %95
  store i32 %97, ptr %5, align 4
  %98 = load i32, ptr %5, align 4
  %99 = load i32, ptr %6, align 4
  %100 = xor i32 %99, %98
  store i32 %100, ptr %6, align 4
  %101 = load i32, ptr %5, align 4
  %102 = call i32 @pg_rotate_left32(i32 noundef %101, i32 noundef 25)
  %103 = load i32, ptr %6, align 4
  %104 = sub i32 %103, %102
  store i32 %104, ptr %6, align 4
  %105 = load i32, ptr %6, align 4
  %106 = load i32, ptr %7, align 4
  %107 = xor i32 %106, %105
  store i32 %107, ptr %7, align 4
  %108 = load i32, ptr %6, align 4
  %109 = call i32 @pg_rotate_left32(i32 noundef %108, i32 noundef 16)
  %110 = load i32, ptr %7, align 4
  %111 = sub i32 %110, %109
  store i32 %111, ptr %7, align 4
  %112 = load i32, ptr %7, align 4
  %113 = load i32, ptr %5, align 4
  %114 = xor i32 %113, %112
  store i32 %114, ptr %5, align 4
  %115 = load i32, ptr %7, align 4
  %116 = call i32 @pg_rotate_left32(i32 noundef %115, i32 noundef 4)
  %117 = load i32, ptr %5, align 4
  %118 = sub i32 %117, %116
  store i32 %118, ptr %5, align 4
  %119 = load i32, ptr %5, align 4
  %120 = load i32, ptr %6, align 4
  %121 = xor i32 %120, %119
  store i32 %121, ptr %6, align 4
  %122 = load i32, ptr %5, align 4
  %123 = call i32 @pg_rotate_left32(i32 noundef %122, i32 noundef 14)
  %124 = load i32, ptr %6, align 4
  %125 = sub i32 %124, %123
  store i32 %125, ptr %6, align 4
  %126 = load i32, ptr %6, align 4
  %127 = load i32, ptr %7, align 4
  %128 = xor i32 %127, %126
  store i32 %128, ptr %7, align 4
  %129 = load i32, ptr %6, align 4
  %130 = call i32 @pg_rotate_left32(i32 noundef %129, i32 noundef 24)
  %131 = load i32, ptr %7, align 4
  %132 = sub i32 %131, %130
  store i32 %132, ptr %7, align 4
  %133 = load i32, ptr %6, align 4
  %134 = zext i32 %133 to i64
  %135 = shl i64 %134, 32
  %136 = load i32, ptr %7, align 4
  %137 = zext i32 %136 to i64
  %138 = or i64 %135, %137
  call void @llvm.lifetime.end.p0(i64 4, ptr %7) #4
  call void @llvm.lifetime.end.p0(i64 4, ptr %6) #4
  call void @llvm.lifetime.end.p0(i64 4, ptr %5) #4
  ret i64 %138
}