; Function Attrs: mustprogress nofree norecurse nosync nounwind willreturn memory(none) uwtable
define i64 @hash_bytes_uint32_extended(i32 noundef %0, i64 noundef %1) local_unnamed_addr #1 {
  %.not = icmp eq i64 %1, 0
  br i1 %.not, label %30, label %3

3:                                                ; preds = %2
  %4 = lshr i64 %1, 32
  %5 = trunc nuw i64 %4 to i32
  %6 = trunc i64 %1 to i32
  %7 = add i32 %6, -1636608428
  %8 = xor i32 %5, -415931063
  %9 = add i32 %6, 1021750440
  %10 = sub i32 %7, %8
  %11 = tail call noundef i32 @llvm.fshl.i32(i32 %8, i32 %8, i32 6)
  %12 = xor i32 %10, %11
  %13 = add i32 %8, %9
  %14 = sub i32 %9, %12
  %15 = tail call noundef i32 @llvm.fshl.i32(i32 %12, i32 %12, i32 8)
  %16 = xor i32 %14, %15
  %17 = add i32 %12, %13
  %18 = sub i32 %13, %16
  %19 = tail call noundef i32 @llvm.fshl.i32(i32 %16, i32 %16, i32 16)
  %20 = xor i32 %18, %19
  %21 = add i32 %16, %17
  %22 = sub i32 %17, %20
  %23 = tail call noundef i32 @llvm.fshl.i32(i32 %20, i32 %20, i32 19)
  %24 = xor i32 %22, %23
  %25 = add i32 %20, %21
  %26 = sub i32 %21, %24
  %27 = tail call noundef i32 @llvm.fshl.i32(i32 %24, i32 %24, i32 4)
  %28 = xor i32 %26, %27
  %29 = add i32 %24, %25
  br label %30

30:                                               ; preds = %3, %2
  %.074 = phi i32 [ %25, %3 ], [ -1636608428, %2 ]
  %.073 = phi i32 [ %29, %3 ], [ -1636608428, %2 ]
  %.0 = phi i32 [ %28, %3 ], [ -1636608428, %2 ]
  %31 = add i32 %.074, %0
  %32 = xor i32 %.0, %.073
  %33 = tail call noundef i32 @llvm.fshl.i32(i32 %.073, i32 %.073, i32 14)
  %34 = sub i32 %32, %33
  %35 = xor i32 %34, %31
  %36 = tail call noundef i32 @llvm.fshl.i32(i32 %34, i32 %34, i32 11)
  %37 = sub i32 %35, %36
  %38 = xor i32 %37, %.073
  %39 = tail call noundef i32 @llvm.fshl.i32(i32 %37, i32 %37, i32 25)
  %40 = sub i32 %38, %39
  %41 = xor i32 %40, %34
  %42 = tail call noundef i32 @llvm.fshl.i32(i32 %40, i32 %40, i32 16)
  %43 = sub i32 %41, %42
  %44 = xor i32 %43, %37
  %45 = tail call noundef i32 @llvm.fshl.i32(i32 %43, i32 %43, i32 4)
  %46 = sub i32 %44, %45
  %47 = xor i32 %46, %40
  %48 = tail call noundef i32 @llvm.fshl.i32(i32 %46, i32 %46, i32 14)
  %49 = sub i32 %47, %48
  %50 = xor i32 %49, %43
  %51 = tail call noundef i32 @llvm.fshl.i32(i32 %49, i32 %49, i32 24)
  %52 = sub i32 %50, %51
  %53 = zext i32 %49 to i64
  %54 = shl nuw i64 %53, 32
  %55 = zext i32 %52 to i64
  %56 = or disjoint i64 %54, %55
  ret i64 %56
}